; Function Attrs: null_pointer_is_valid sspstrong uwtable
define internal fastcc void @struct_xproto_RECTANGLE(ptr noundef %0, ptr noundef captures(none) %1, ptr noundef %2, i32 noundef %3, i32 noundef %4) unnamed_addr #1 {
  %6 = icmp sgt i32 %4, 0
  br i1 %6, label %.lr.ph.preheader, label %._crit_edge

.lr.ph.preheader:                                 ; preds = %5
  %.pre = load i32, ptr %1, align 4
  br label %.lr.ph

.lr.ph:                                           ; preds = %.lr.ph.preheader, %.lr.ph
  %7 = phi i32 [ %28, %.lr.ph ], [ %.pre, %.lr.ph.preheader ]
  %.026 = phi i32 [ %29, %.lr.ph ], [ 0, %.lr.ph.preheader ]
  %8 = load i32, ptr @hf_x11_struct_xproto_RECTANGLE, align 4
  %9 = tail call ptr @proto_tree_add_item(ptr noundef %2, i32 noundef %8, ptr noundef %0, i32 noundef %7, i32 noundef 8, i32 noundef 0)
  %10 = load i32, ptr @ett_x11_rectangle, align 4
  %11 = tail call ptr @proto_item_add_subtree(ptr noundef %9, i32 noundef %10)
  %12 = load i32, ptr @hf_x11_struct_xproto_RECTANGLE_x, align 4
  %13 = load i32, ptr %1, align 4
  %14 = tail call ptr @proto_tree_add_item(ptr noundef %11, i32 noundef %12, ptr noundef %0, i32 noundef %13, i32 noundef 2, i32 noundef %3)
  %15 = load i32, ptr %1, align 4
  %16 = add i32 %15, 2
  store i32 %16, ptr %1, align 4
  %17 = load i32, ptr @hf_x11_struct_xproto_RECTANGLE_y, align 4
  %18 = tail call ptr @proto_tree_add_item(ptr noundef %11, i32 noundef %17, ptr noundef %0, i32 noundef %16, i32 noundef 2, i32 noundef %3)
  %19 = load i32, ptr %1, align 4
  %20 = add i32 %19, 2
  store i32 %20, ptr %1, align 4
  %21 = load i32, ptr @hf_x11_struct_xproto_RECTANGLE_width, align 4
  %22 = tail call ptr @proto_tree_add_item(ptr noundef %11, i32 noundef %21, ptr noundef %0, i32 noundef %20, i32 noundef 2, i32 noundef %3)
  %23 = load i32, ptr %1, align 4
  %24 = add i32 %23, 2
  store i32 %24, ptr %1, align 4
  %25 = load i32, ptr @hf_x11_struct_xproto_RECTANGLE_height, align 4
  %26 = tail call ptr @proto_tree_add_item(ptr noundef %11, i32 noundef %25, ptr noundef %0, i32 noundef %24, i32 noundef 2, i32 noundef %3)
  %27 = load i32, ptr %1, align 4
  %28 = add i32 %27, 2
  store i32 %28, ptr %1, align 4
  %29 = add nuw nsw i32 %.026, 1
  %exitcond.not = icmp eq i32 %29, %4
  br i1 %exitcond.not, label %._crit_edge, label %.lr.ph, !llvm.loop !67

._crit_edge:                                      ; preds = %.lr.ph, %5
  ret void
}